target datalayout = "e-m:e-p270:32:32-p271:32:32-p272:64:64-i64:64-i128:128-f80:128-n8:16:32:64-S128"
target triple = "x86_64-pc-linux-gnu"

%struct.TaskQueue_ = type { %union.pthread_mutex_t, ptr }
%union.pthread_mutex_t = type { %struct.__pthread_mutex_s }
%struct.__pthread_mutex_s = type { i32, i32, i32, i32, i32, i16, i16, %struct.__pthread_internal_list }
%struct.__pthread_internal_list = type { ptr, ptr }
%struct.VHeader_ = type { i32, i32, [0 x i8] }
%struct.Task_ = type { ptr, ptr }

@.str = private unnamed_addr constant [23 x i8] c"Failed to set up mutex\00", align 1
@.str.1 = private unnamed_addr constant [27 x i8] c"Fail to set up thread pool\00", align 1
@.str.2 = private unnamed_addr constant [23 x i8] c"Failed to join thread.\00", align 1

; Function Attrs: nounwind uwtable
define dso_local void @taskqueue_run(i32 noundef %0, ptr noundef %1) #0 {
  %3 = alloca i32, align 4
  %4 = alloca ptr, align 8
  %5 = alloca ptr, align 8
  %6 = alloca %struct.TaskQueue_, align 8
  %7 = alloca i32, align 4
  %8 = alloca i32, align 4
  store i32 %0, ptr %3, align 4
  store ptr %1, ptr %4, align 8
  %9 = load i32, ptr %3, align 4
  %10 = zext i32 %9 to i64
  %11 = mul i64 8, %10
  %12 = call noalias ptr @malloc(i64 noundef %11) #6
  store ptr %12, ptr %5, align 8
  call void @llvm.memset.p0.i64(ptr align 8 %6, i8 0, i64 48, i1 false)
  %13 = getelementptr inbounds %struct.TaskQueue_, ptr %6, i32 0, i32 1
  %14 = load ptr, ptr %4, align 8
  store ptr %14, ptr %13, align 8
  %15 = getelementptr inbounds %struct.TaskQueue_, ptr %6, i32 0, i32 0
  %16 = call i32 @pthread_mutex_init(ptr noundef %15, ptr noundef null) #7
  %17 = icmp ne i32 %16, 0
  br i1 %17, label %18, label %19

18:                                               ; preds = %2
  call void (ptr, ...) @error_exit(ptr noundef @.str) #8
  unreachable

19:                                               ; preds = %2
  store i32 0, ptr %7, align 4
  br label %20

20:                                               ; preds = %33, %19
  %21 = load i32, ptr %7, align 4
  %22 = load i32, ptr %3, align 4
  %23 = icmp slt i32 %21, %22
  br i1 %23, label %24, label %36

24:                                               ; preds = %20
  %25 = load ptr, ptr %5, align 8
  %26 = load i32, ptr %7, align 4
  %27 = sext i32 %26 to i64
  %28 = getelementptr inbounds i64, ptr %25, i64 %27
  %29 = call i32 @pthread_create(ptr noundef %28, ptr noundef null, ptr noundef @taskqueue_thread, ptr noundef %6) #7
  %30 = icmp ne i32 %29, 0
  br i1 %30, label %31, label %32

31:                                               ; preds = %24
  call void (ptr, ...) @error_exit(ptr noundef @.str.1) #8
  unreachable

32:                                               ; preds = %24
  br label %33

33:                                               ; preds = %32
  %34 = load i32, ptr %7, align 4
  %35 = add nsw i32 %34, 1
  store i32 %35, ptr %7, align 4
  br label %20, !llvm.loop !7

36:                                               ; preds = %20
  store i32 0, ptr %8, align 4
  br label %37

37:                                               ; preds = %51, %36
  %38 = load i32, ptr %8, align 4
  %39 = load i32, ptr %3, align 4
  %40 = icmp slt i32 %38, %39
  br i1 %40, label %41, label %54

41:                                               ; preds = %37
  %42 = load ptr, ptr %5, align 8
  %43 = load i32, ptr %8, align 4
  %44 = sext i32 %43 to i64
  %45 = getelementptr inbounds i64, ptr %42, i64 %44
  %46 = load i64, ptr %45, align 8
  %47 = call i32 @pthread_join(i64 noundef %46, ptr noundef null)
  %48 = icmp ne i32 %47, 0
  br i1 %48, label %49, label %50

49:                                               ; preds = %41
  call void (ptr, ...) @error_exit(ptr noundef @.str.2) #8
  unreachable

50:                                               ; preds = %41
  br label %51

51:                                               ; preds = %50
  %52 = load i32, ptr %8, align 4
  %53 = add nsw i32 %52, 1
  store i32 %53, ptr %8, align 4
  br label %37, !llvm.loop !9

54:                                               ; preds = %37
  %55 = load ptr, ptr %5, align 8
  call void @free(ptr noundef %55) #7
  %56 = getelementptr inbounds %struct.TaskQueue_, ptr %6, i32 0, i32 0
  %57 = call i32 @pthread_mutex_destroy(ptr noundef %56) #7
  ret void
}

; Function Attrs: nounwind allocsize(0)
declare noalias ptr @malloc(i64 noundef) #1

; Function Attrs: nocallback nofree nounwind willreturn memory(argmem: write)
declare void @llvm.memset.p0.i64(ptr nocapture writeonly, i8, i64, i1 immarg) #2

; Function Attrs: nounwind
declare i32 @pthread_mutex_init(ptr noundef, ptr noundef) #3

; Function Attrs: noreturn
declare void @error_exit(ptr noundef, ...) #4

; Function Attrs: nounwind
declare i32 @pthread_create(ptr noundef, ptr noundef, ptr noundef, ptr noundef) #3

; Function Attrs: nounwind uwtable
define internal ptr @taskqueue_thread(ptr noundef %0) #0 {
  %2 = alloca i32, align 4
  %3 = alloca ptr, align 8
  %4 = alloca ptr, align 8
  %5 = alloca ptr, align 8
  %6 = alloca ptr, align 8
  %7 = alloca i32, align 4
  %8 = alloca ptr, align 8
  store ptr %0, ptr %5, align 8
  %9 = load ptr, ptr %5, align 8
  store ptr %9, ptr %6, align 8
  br label %10

10:                                               ; preds = %30, %1
  %11 = load ptr, ptr %6, align 8
  %12 = getelementptr inbounds %struct.TaskQueue_, ptr %11, i32 0, i32 0
  %13 = call i32 @pthread_mutex_lock(ptr noundef %12) #7
  %14 = load ptr, ptr %6, align 8
  %15 = getelementptr inbounds %struct.TaskQueue_, ptr %14, i32 0, i32 1
  %16 = load ptr, ptr %15, align 8
  store ptr %16, ptr %3, align 8
  %17 = load ptr, ptr %3, align 8
  %18 = icmp ne ptr %17, null
  br i1 %18, label %20, label %19

19:                                               ; preds = %10
  store i32 0, ptr %2, align 4
  br label %25

20:                                               ; preds = %10
  %21 = load ptr, ptr %3, align 8
  store ptr %21, ptr %4, align 8
  %22 = load ptr, ptr %4, align 8
  %23 = getelementptr inbounds %struct.VHeader_, ptr %22, i64 -1
  %24 = load i32, ptr %23, align 4
  store i32 %24, ptr %2, align 4
  br label %25

25:                                               ; preds = %20, %19
  %26 = load i32, ptr %2, align 4
  store i32 %26, ptr %7, align 4
  %27 = load i32, ptr %7, align 4
  %28 = icmp ne i32 %27, 0
  br i1 %28, label %30, label %29

29:                                               ; preds = %25
  br label %51

30:                                               ; preds = %25
  %31 = load ptr, ptr %6, align 8
  %32 = getelementptr inbounds %struct.TaskQueue_, ptr %31, i32 0, i32 1
  %33 = load ptr, ptr %32, align 8
  %34 = load i32, ptr %7, align 4
  %35 = sub i32 %34, 1
  %36 = zext i32 %35 to i64
  %37 = getelementptr inbounds ptr, ptr %33, i64 %36
  %38 = load ptr, ptr %37, align 8
  store ptr %38, ptr %8, align 8
  %39 = load ptr, ptr %6, align 8
  %40 = getelementptr inbounds %struct.TaskQueue_, ptr %39, i32 0, i32 1
  %41 = load ptr, ptr %40, align 8
  call void @vec_pop(ptr noundef %41)
  %42 = load ptr, ptr %6, align 8
  %43 = getelementptr inbounds %struct.TaskQueue_, ptr %42, i32 0, i32 0
  %44 = call i32 @pthread_mutex_unlock(ptr noundef %43) #7
  %45 = load ptr, ptr %8, align 8
  %46 = getelementptr inbounds %struct.Task_, ptr %45, i32 0, i32 0
  %47 = load ptr, ptr %46, align 8
  %48 = load ptr, ptr %8, align 8
  %49 = getelementptr inbounds %struct.Task_, ptr %48, i32 0, i32 1
  %50 = load ptr, ptr %49, align 8
  call void %47(ptr noundef %50)
  br label %10

51:                                               ; preds = %29
  %52 = load ptr, ptr %6, align 8
  %53 = getelementptr inbounds %struct.TaskQueue_, ptr %52, i32 0, i32 0
  %54 = call i32 @pthread_mutex_unlock(ptr noundef %53) #7
  call void @pthread_exit(ptr noundef null) #8
  unreachable
}

declare i32 @pthread_join(i64 noundef, ptr noundef) #5

; Function Attrs: nounwind
declare void @free(ptr noundef) #3

; Function Attrs: nounwind
declare i32 @pthread_mutex_destroy(ptr noundef) #3

; Function Attrs: nounwind
declare i32 @pthread_mutex_lock(ptr noundef) #3

; Function Attrs: nounwind uwtable
define internal void @vec_pop(ptr noundef %0) #0 {
  %2 = alloca ptr, align 8
  %3 = alloca ptr, align 8
  store ptr %0, ptr %2, align 8
  %4 = load ptr, ptr %2, align 8
  store ptr %4, ptr %3, align 8
  %5 = load ptr, ptr %3, align 8
  %6 = getelementptr inbounds %struct.VHeader_, ptr %5, i64 -1
  %7 = getelementptr inbounds %struct.VHeader_, ptr %6, i32 0, i32 0
  %8 = load i32, ptr %7, align 4
  %9 = add i32 %8, -1
  store i32 %9, ptr %7, align 4
  ret void
}

; Function Attrs: nounwind
declare i32 @pthread_mutex_unlock(ptr noundef) #3

; Function Attrs: noreturn
declare void @pthread_exit(ptr noundef) #4


!llvm.module.flags = !{!0, !1, !2, !3, !4, !5, !6}

!0 = !{i32 7, !"Dwarf Version", i32 3}
!1 = !{i32 2, !"Debug Info Version", i32 3}
!2 = !{i32 1, !"wchar_size", i32 4}
!3 = !{i32 8, !"PIC Level", i32 2}
!4 = !{i32 7, !"PIE Level", i32 2}
!5 = !{i32 7, !"uwtable", i32 2}
!6 = !{i32 7, !"frame-pointer", i32 2}
!7 = distinct !{!7, !8}
!8 = !{!"llvm.loop.mustprogress"}
!9 = distinct !{!9, !8}
